; Function Attrs: inlinehint mustprogress uwtable
define internal fastcc noundef i32 @"_ZZN12seq_rewriter13mk_der_op_recEiP4exprS1_ENK3$_1clES1_"(ptr nonnull %.0.val, ptr noundef %0) unnamed_addr #9 align 2 {
  %2 = alloca i32, align 4
  call void @llvm.lifetime.start.p0(i64 4, ptr nonnull %2) #28
  %3 = tail call noundef zeroext i1 @_ZNK8seq_util10is_char_leEPK4expr(ptr noundef nonnull align 8 dereferenceable(136) %.0.val, ptr noundef %0)
  br i1 %3, label %4, label %_ZNK8seq_util10is_char_leEPK4exprRPS0_S4_.exit.thread

4:                                                ; preds = %1
  %5 = getelementptr inbounds nuw i8, ptr %0, i64 24
  %6 = load i32, ptr %5, align 8, !tbaa !214
  %7 = icmp eq i32 %6, 2
  br i1 %7, label %8, label %_ZNK8seq_util10is_char_leEPK4exprRPS0_S4_.exit.thread

8:                                                ; preds = %4
  %9 = getelementptr inbounds nuw i8, ptr %0, i64 40
  %10 = load ptr, ptr %9, align 8, !tbaa !3
  %11 = call noundef zeroext i1 @_ZNK8seq_util13is_const_charEP4exprRj(ptr noundef nonnull align 8 dereferenceable(136) %.0.val, ptr noundef %10, ptr noundef nonnull align 4 dereferenceable(4) %2)
  br i1 %11, label %_ZNK11ast_manager6is_notEPK4exprRPS0_.exit, label %_ZNK8seq_util10is_char_leEPK4exprRPS0_S4_.exit.thread

_ZNK8seq_util10is_char_leEPK4exprRPS0_S4_.exit.thread: ; preds = %1, %4, %8
  %12 = getelementptr inbounds nuw i8, ptr %0, i64 4
  %13 = load i32, ptr %12, align 4
  %14 = and i32 %13, 65535
  %15 = icmp eq i32 %14, 0
  br i1 %15, label %16, label %_ZNK11ast_manager6is_notEPK4exprRPS0_.exit

16:                                               ; preds = %_ZNK8seq_util10is_char_leEPK4exprRPS0_S4_.exit.thread
  %17 = getelementptr inbounds nuw i8, ptr %0, i64 16
  %18 = load ptr, ptr %17, align 8, !tbaa !202
  %19 = getelementptr inbounds nuw i8, ptr %18, i64 24
  %20 = load ptr, ptr %19, align 8, !tbaa !207
  %.not.i.i.i.i.i = icmp eq ptr %20, null
  br i1 %.not.i.i.i.i.i, label %_ZNK11ast_manager6is_notEPK4exprRPS0_.exit, label %_ZNK11ast_manager6is_notEPK4expr.exit.i

_ZNK11ast_manager6is_notEPK4expr.exit.i:          ; preds = %16
  %21 = load i32, ptr %20, align 8, !tbaa !210
  %22 = icmp eq i32 %21, 0
  %23 = getelementptr inbounds nuw i8, ptr %20, i64 4
  %24 = load i32, ptr %23, align 4
  %25 = icmp eq i32 %24, 8
  %26 = select i1 %22, i1 %25, i1 false
  br i1 %26, label %27, label %_ZNK11ast_manager6is_notEPK4exprRPS0_.exit

27:                                               ; preds = %_ZNK11ast_manager6is_notEPK4expr.exit.i
  %28 = getelementptr inbounds nuw i8, ptr %0, i64 24
  %29 = load i32, ptr %28, align 8, !tbaa !214
  %30 = icmp eq i32 %29, 1
  br i1 %30, label %31, label %_ZNK11ast_manager6is_notEPK4exprRPS0_.exit

31:                                               ; preds = %27
  %32 = getelementptr inbounds nuw i8, ptr %0, i64 32
  %33 = load ptr, ptr %32, align 8, !tbaa !3
  br label %_ZNK11ast_manager6is_notEPK4exprRPS0_.exit

_ZNK11ast_manager6is_notEPK4exprRPS0_.exit:       ; preds = %31, %27, %_ZNK11ast_manager6is_notEPK4expr.exit.i, %16, %_ZNK8seq_util10is_char_leEPK4exprRPS0_S4_.exit.thread, %8
  %.0.in = phi ptr [ %2, %8 ], [ %0, %16 ], [ %33, %31 ], [ %0, %27 ], [ %0, %_ZNK11ast_manager6is_notEPK4expr.exit.i ], [ %0, %_ZNK8seq_util10is_char_leEPK4exprRPS0_S4_.exit.thread ]
  %.0 = load i32, ptr %.0.in, align 4, !tbaa !101
  call void @llvm.lifetime.end.p0(i64 4, ptr nonnull %2) #28
  ret i32 %.0
}